Certificate:
    Data:
        Version: 3 (0x2)
        Serial Number: 2 (0x2)
        Signature Algorithm: sha256WithRSAEncryption
        Issuer: C=US, O=Operator, OU=Enterprise, CN=Enterprise Root CA
        Validity
            Not Before: Apr 15 18:28:19 2023 GMT
            Not After : Apr 14 18:28:19 2033 GMT
        Subject: C=US, O=Google, OU=Enterprise, CN=tee.operator.com
        Subject Public Key Info:
            Public Key Algorithm: rsaEncryption
                Public-Key: (2048 bit)
                Modulus:
                    00:c4:ab:56:87:42:8c:4a:a9:0b:55:54:c0:2d:9a:
                    46:5c:cd:58:56:3a:55:32:28:10:ab:70:36:4e:4e:
                    01:02:4c:08:12:c2:65:f6:2d:87:72:e3:30:8d:ba:
                    5c:c3:04:fd:12:95:f5:0e:e3:fe:9f:c2:b2:88:34:
                    68:c0:86:24:71:41:01:ec:d3:fa:9d:aa:50:8b:a0:
                    e3:61:ff:9e:0c:b0:80:c2:3b:35:ba:1c:5b:b3:6c:
                    fd:15:52:d3:d9:a6:e2:23:5c:c2:b2:3d:de:dd:29:
                    96:3a:a6:fb:99:9f:2a:b4:94:59:bd:fd:1d:e3:bf:
                    1e:bf:10:70:1a:e7:8c:df:58:43:b2:2e:ec:23:1b:
                    f4:e2:20:ef:dd:ce:8f:60:7c:f8:52:73:f2:c4:10:
                    20:7d:0b:95:94:95:0e:5d:7a:63:c1:98:8e:fd:12:
                    d7:8f:42:6c:3d:6d:41:7f:16:ee:ff:8b:e8:ac:8a:
                    7c:23:8b:bb:8d:72:84:55:2a:32:8b:1f:dd:f0:a5:
                    e8:c2:54:31:88:e4:93:8a:9e:78:5a:32:3b:7c:40:
                    f4:f9:33:d4:c4:70:96:8d:9e:ef:d9:d7:51:6a:ac:
                    2b:95:0b:31:ac:5a:16:0a:f2:a8:80:97:7e:06:0e:
                    f0:ef:f3:e8:b8:3e:d0:8a:b1:f1:a0:e6:33:24:4c:
                    f5:1b
                Exponent: 65537 (0x10001)
        X509v3 extensions:
            X509v3 Key Usage: critical
                Digital Signature
            X509v3 Basic Constraints: 
                CA:FALSE
            X509v3 Extended Key Usage: 
                TLS Web Server Authentication
            X509v3 Subject Key Identifier: 
                76:8F:E0:B1:4D:3F:7C:9A:4C:7B:BF:F6:04:1C:74:62:2E:E3:A4:CF
            X509v3 Authority Key Identifier: 
                58:88:29:FD:AA:3A:F0:9F:51:CA:FD:F1:6B:FC:D7:F0:8E:67:CF:80
            Authority Information Access: 
                CA Issuers - URI:http://pki.esodemoapp2.com/ca/root-ca.cer
            X509v3 CRL Distribution Points: 
                Full Name:
                  URI:http://pki.esodemoapp2.com/ca/root-ca.crl
    Signature Algorithm: sha256WithRSAEncryption
    Signature Value:
        90:c8:8e:f1:0f:ae:46:48:56:9f:71:f3:4f:17:a7:5b:e4:19:
        9a:18:6d:3c:03:05:e6:06:ba:cc:42:49:41:de:1b:fb:e6:38:
        58:16:b8:40:4a:67:bf:d6:8f:c1:5d:b1:a1:00:1d:8c:d9:8d:
        3a:e5:88:97:46:0f:5c:e2:2a:9e:a4:f8:f0:cc:b5:2c:9e:78:
        eb:b8:81:bf:0d:df:e2:3d:85:41:90:74:65:e9:55:21:e9:a7:
        98:b5:6e:af:78:bd:f3:ed:f6:68:41:c5:8b:7a:74:91:3d:58:
        fa:6c:49:cf:01:9b:b8:3a:29:4a:71:4b:19:4b:c7:4d:75:4d:
        47:66:12:cf:19:94:e7:7a:f2:6f:78:67:a5:6f:4a:c1:d7:d8:
        22:63:a2:7b:db:b3:45:be:4e:a9:c8:14:57:11:17:25:80:02:
        1e:ae:7f:71:34:1c:e1:d6:14:c0:0f:db:c1:40:00:2a:c7:38:
        fa:39:0e:51:bf:e3:eb:90:da:9b:e9:ac:9a:98:7d:1a:00:8c:
        c5:0c:f3:c3:8d:35:f9:3c:d4:9f:05:e6:48:02:82:85:fc:67:
        2a:f6:fd:db:ea:a1:a3:27:ee:4d:85:d8:bf:f2:f3:dd:a4:f3:
        ab:60:17:9d:0c:e7:5e:83:c8:de:dd:ad:94:07:71:2e:e0:a8:
        e1:d6:02:e5
-----BEGIN CERTIFICATE-----
MIIEEjCCAvqgAwIBAgIBAjANBgkqhkiG9w0BAQsFADBSMQswCQYDVQQGEwJVUzER
MA8GA1UECgwIT3BlcmF0b3IxEzARBgNVBAsMCkVudGVycHJpc2UxGzAZBgNVBAMM
EkVudGVycHJpc2UgUm9vdCBDQTAeFw0yMzA0MTUxODI4MTlaFw0zMzA0MTQxODI4
MTlaME4xCzAJBgNVBAYTAlVTMQ8wDQYDVQQKDAZHb29nbGUxEzARBgNVBAsMCkVu
dGVycHJpc2UxGTAXBgNVBAMMEHRlZS5vcGVyYXRvci5jb20wggEiMA0GCSqGSIb3
DQEBAQUAA4IBDwAwggEKAoIBAQDEq1aHQoxKqQtVVMAtmkZczVhWOlUyKBCrcDZO
TgECTAgSwmX2LYdy4zCNulzDBP0SlfUO4/6fwrKINGjAhiRxQQHs0/qdqlCLoONh
/54MsIDCOzW6HFuzbP0VUtPZpuIjXMKyPd7dKZY6pvuZnyq0lFm9/R3jvx6/EHAa
54zfWEOyLuwjG/TiIO/dzo9gfPhSc/LEECB9C5WUlQ5demPBmI79EtePQmw9bUF/
Fu7/i+isinwji7uNcoRVKjKLH93wpejCVDGI5JOKnnhaMjt8QPT5M9TEcJaNnu/Z
11FqrCuVCzGsWhYK8qiAl34GDvDv8+i4PtCKsfGg5jMkTPUbAgMBAAGjgfYwgfMw
DgYDVR0PAQH/BAQDAgeAMAkGA1UdEwQCMAAwEwYDVR0lBAwwCgYIKwYBBQUHAwEw
HQYDVR0OBBYEFHaP4LFNP3yaTHu/9gQcdGIu46TPMB8GA1UdIwQYMBaAFFiIKf2q
OvCfUcr98Wv81/COZ8+AMEUGCCsGAQUFBwEBBDkwNzA1BggrBgEFBQcwAoYpaHR0
cDovL3BraS5lc29kZW1vYXBwMi5jb20vY2Evcm9vdC1jYS5jZXIwOgYDVR0fBDMw
MTAvoC2gK4YpaHR0cDovL3BraS5lc29kZW1vYXBwMi5jb20vY2Evcm9vdC1jYS5j
cmwwDQYJKoZIhvcNAQELBQADggEBAJDIjvEPrkZIVp9x808Xp1vkGZoYbTwDBeYG
usxCSUHeG/vmOFgWuEBKZ7/Wj8FdsaEAHYzZjTrliJdGD1ziKp6k+PDMtSyeeOu4
gb8N3+I9hUGQdGXpVSHpp5i1bq94vfPt9mhBxYt6dJE9WPpsSc8Bm7g6KUpxSxlL
x011TUdmEs8ZlOd68m94Z6VvSsHX2CJjonvbs0W+TqnIFFcRFyWAAh6uf3E0HOHW
FMAP28FAACrHOPo5DlG/4+uQ2pvprJqYfRoAjMUM88ONNfk81J8F5kgCgoX8Zyr2
/dvqoaMn7k2F2L/y892k86tgF50M516DyN7drZQHcS7gqOHWAuU=
-----END CERTIFICATE-----
